; Function Attrs: nounwind uwtable
define internal void @_ArchiveEntry(ptr readnone captures(none) %0, ptr noundef captures(none) initializes((152, 160)) %1) #0 {
  %3 = alloca [1024 x i8], align 16
  call void @llvm.lifetime.start.p0(i64 1024, ptr nonnull %3) #17
  %4 = tail call ptr @pg_malloc0(i64 noundef 16) #17
  %5 = getelementptr inbounds nuw i8, ptr %1, i64 136
  %6 = load ptr, ptr %5, align 8
  %.not = icmp eq ptr %6, null
  br i1 %.not, label %12, label %7

7:                                                ; preds = %2
  %8 = getelementptr inbounds nuw i8, ptr %1, i64 24
  %9 = load i32, ptr %8, align 8
  %10 = call i32 (ptr, i64, ptr, ...) @pg_snprintf(ptr noundef nonnull %3, i64 noundef 1024, ptr noundef nonnull @.str.13, i32 noundef %9) #17
  %11 = call ptr @pg_strdup(ptr noundef nonnull %3) #17
  br label %13

12:                                               ; preds = %2
  store ptr null, ptr %4, align 8
  br label %13

13:                                               ; preds = %12, %7
  %.sink = phi ptr [ null, %12 ], [ %11, %7 ]
  %14 = getelementptr inbounds nuw i8, ptr %4, i64 8
  store ptr %.sink, ptr %14, align 8
  %15 = getelementptr inbounds nuw i8, ptr %1, i64 152
  store ptr %4, ptr %15, align 8
  call void @llvm.lifetime.end.p0(i64 1024, ptr nonnull %3) #17
  ret void
}